; Function Attrs: mustprogress uwtable
define hidden void @_ZN19Z3_apply_result_refC2ERN3api7contextER11ast_manager(ptr noundef nonnull align 8 dereferenceable(184) %this, ptr noundef nonnull align 8 dereferenceable(3048) %c, ptr nocapture nonnull readnone align 8 %m) unnamed_addr #3 align 2 personality ptr @__gxx_personality_v0 {
invoke.cont:
  tail call void @_ZN3api6objectC2ERNS_7contextE(ptr noundef nonnull align 8 dereferenceable(24) %this, ptr noundef nonnull align 8 dereferenceable(3048) %c)
  store ptr getelementptr inbounds ({ [4 x ptr] }, ptr @_ZTV19Z3_apply_result_ref, i64 0, i32 0, i64 2), ptr %this, align 8
  %m_subgoals = getelementptr inbounds i8, ptr %this, i64 24
  %m_initial_buffer.i.i.i.i = getelementptr inbounds i8, ptr %this, i64 40
  store ptr %m_initial_buffer.i.i.i.i, ptr %m_subgoals, align 8
  %m_pos.i.i.i.i = getelementptr inbounds i8, ptr %this, i64 32
  store i32 0, ptr %m_pos.i.i.i.i, align 8
  %m_capacity.i.i.i.i = getelementptr inbounds i8, ptr %this, i64 36
  store i32 16, ptr %m_capacity.i.i.i.i, align 4
  %m_mc = getelementptr inbounds i8, ptr %this, i64 168
  tail call void @llvm.memset.p0.i64(ptr noundef nonnull align 8 dereferenceable(16) %m_mc, i8 0, i64 16, i1 false)
  ret void
}